target datalayout = "e-m:e-p270:32:32-p271:32:32-p272:64:64-i64:64-i128:128-f80:128-n8:16:32:64-S128"
target triple = "x86_64-pc-linux-gnu"

%struct.CbsP_Par_t_ = type { i32, i32, i32, i32, i32, i32, i32, i32, i32, i32, i32, i32, i32, i32, i32, i32, i32, i32, i32, i32, i32, i32, i32, i32, i64, i64, i64, i64, i64, i64, i64, i64, i64, i32, i32, i32 }
%struct.CbsP_Man_t_ = type { %struct.CbsP_Par_t_, ptr, %struct.CbsP_Que_t_, %struct.CbsP_Que_t_, %struct.CbsP_Que_t_, ptr, ptr, ptr, ptr, ptr, i32, i32, i32, i32, i32, i32, i32, i64, i64, i64, i64 }
%struct.CbsP_Que_t_ = type { i32, i32, i32, ptr }

; Function Attrs: inlinehint nounwind uwtable
define internal i32 @CbsP_QueFinish(ptr noundef %0) #6 {
  %2 = alloca ptr, align 8
  %3 = alloca i32, align 4
  store ptr %0, ptr %2, align 8, !tbaa !102
  call void @llvm.lifetime.start.p0(i64 4, ptr %3) #11
  %4 = load ptr, ptr %2, align 8, !tbaa !102
  %5 = getelementptr inbounds nuw %struct.CbsP_Que_t_, ptr %4, i32 0, i32 0
  %6 = load i32, ptr %5, align 8, !tbaa !115
  store i32 %6, ptr %3, align 4, !tbaa !38
  %7 = load ptr, ptr %2, align 8, !tbaa !102
  call void @CbsP_QuePush(ptr noundef %7, ptr noundef null)
  %8 = load ptr, ptr %2, align 8, !tbaa !102
  %9 = getelementptr inbounds nuw %struct.CbsP_Que_t_, ptr %8, i32 0, i32 1
  %10 = load i32, ptr %9, align 4, !tbaa !116
  %11 = load ptr, ptr %2, align 8, !tbaa !102
  %12 = getelementptr inbounds nuw %struct.CbsP_Que_t_, ptr %11, i32 0, i32 0
  store i32 %10, ptr %12, align 8, !tbaa !115
  %13 = load i32, ptr %3, align 4, !tbaa !38
  call void @llvm.lifetime.end.p0(i64 4, ptr %3) #11
  ret i32 %13
}

; Function Attrs: inlinehint nounwind uwtable
define internal void @CbsP_QuePush(ptr noundef %0, ptr noundef %1) #6 {
  %3 = alloca ptr, align 8
  %4 = alloca ptr, align 8
  store ptr %0, ptr %3, align 8, !tbaa !102
  store ptr %1, ptr %4, align 8, !tbaa !95
  %5 = load ptr, ptr %3, align 8, !tbaa !102
  %6 = getelementptr inbounds nuw %struct.CbsP_Que_t_, ptr %5, i32 0, i32 1
  %7 = load i32, ptr %6, align 4, !tbaa !116
  %8 = load ptr, ptr %3, align 8, !tbaa !102
  %9 = getelementptr inbounds nuw %struct.CbsP_Que_t_, ptr %8, i32 0, i32 2
  %10 = load i32, ptr %9, align 8, !tbaa !158
  %11 = icmp eq i32 %7, %10
  br i1 %11, label %12, label %42

12:                                               ; preds = %2
  %13 = load ptr, ptr %3, align 8, !tbaa !102
  %14 = getelementptr inbounds nuw %struct.CbsP_Que_t_, ptr %13, i32 0, i32 2
  %15 = load i32, ptr %14, align 8, !tbaa !158
  %16 = mul nsw i32 %15, 2
  store i32 %16, ptr %14, align 8, !tbaa !158
  %17 = load ptr, ptr %3, align 8, !tbaa !102
  %18 = getelementptr inbounds nuw %struct.CbsP_Que_t_, ptr %17, i32 0, i32 3
  %19 = load ptr, ptr %18, align 8, !tbaa !109
  %20 = icmp ne ptr %19, null
  br i1 %20, label %21, label %31

21:                                               ; preds = %12
  %22 = load ptr, ptr %3, align 8, !tbaa !102
  %23 = getelementptr inbounds nuw %struct.CbsP_Que_t_, ptr %22, i32 0, i32 3
  %24 = load ptr, ptr %23, align 8, !tbaa !109
  %25 = load ptr, ptr %3, align 8, !tbaa !102
  %26 = getelementptr inbounds nuw %struct.CbsP_Que_t_, ptr %25, i32 0, i32 2
  %27 = load i32, ptr %26, align 8, !tbaa !158
  %28 = sext i32 %27 to i64
  %29 = mul i64 8, %28
  %30 = call ptr @realloc(ptr noundef %24, i64 noundef %29) #15
  br label %38

31:                                               ; preds = %12
  %32 = load ptr, ptr %3, align 8, !tbaa !102
  %33 = getelementptr inbounds nuw %struct.CbsP_Que_t_, ptr %32, i32 0, i32 2
  %34 = load i32, ptr %33, align 8, !tbaa !158
  %35 = sext i32 %34 to i64
  %36 = mul i64 8, %35
  %37 = call noalias ptr @malloc(i64 noundef %36) #13
  br label %38

38:                                               ; preds = %31, %21
  %39 = phi ptr [ %30, %21 ], [ %37, %31 ]
  %40 = load ptr, ptr %3, align 8, !tbaa !102
  %41 = getelementptr inbounds nuw %struct.CbsP_Que_t_, ptr %40, i32 0, i32 3
  store ptr %39, ptr %41, align 8, !tbaa !109
  br label %42

42:                                               ; preds = %38, %2
  %43 = load ptr, ptr %4, align 8, !tbaa !95
  %44 = load ptr, ptr %3, align 8, !tbaa !102
  %45 = getelementptr inbounds nuw %struct.CbsP_Que_t_, ptr %44, i32 0, i32 3
  %46 = load ptr, ptr %45, align 8, !tbaa !109
  %47 = load ptr, ptr %3, align 8, !tbaa !102
  %48 = getelementptr inbounds nuw %struct.CbsP_Que_t_, ptr %47, i32 0, i32 1
  %49 = load i32, ptr %48, align 4, !tbaa !116
  %50 = add nsw i32 %49, 1
  store i32 %50, ptr %48, align 4, !tbaa !116
  %51 = sext i32 %49 to i64
  %52 = getelementptr inbounds ptr, ptr %46, i64 %51
  store ptr %43, ptr %52, align 8, !tbaa !95
  ret void
}

; Function Attrs: inlinehint nounwind uwtable
define internal i32 @CbsP_ManAnalyze(ptr noundef %0, i32 noundef %1, ptr noundef %2, ptr noundef %3, ptr noundef %4) #6 {
  %6 = alloca ptr, align 8
  %7 = alloca i32, align 4
  %8 = alloca ptr, align 8
  %9 = alloca ptr, align 8
  %10 = alloca ptr, align 8
  %11 = alloca ptr, align 8
  store ptr %0, ptr %6, align 8, !tbaa !36
  store i32 %1, ptr %7, align 4, !tbaa !38
  store ptr %2, ptr %8, align 8, !tbaa !95
  store ptr %3, ptr %9, align 8, !tbaa !95
  store ptr %4, ptr %10, align 8, !tbaa !95
  call void @llvm.lifetime.start.p0(i64 8, ptr %11) #11
  %12 = load ptr, ptr %6, align 8, !tbaa !36
  %13 = getelementptr inbounds nuw %struct.CbsP_Man_t_, ptr %12, i32 0, i32 4
  store ptr %13, ptr %11, align 8, !tbaa !102
  %14 = load ptr, ptr %11, align 8, !tbaa !102
  call void @CbsP_QuePush(ptr noundef %14, ptr noundef null)
  %15 = load ptr, ptr %11, align 8, !tbaa !102
  %16 = load ptr, ptr %8, align 8, !tbaa !95
  call void @CbsP_QuePush(ptr noundef %15, ptr noundef %16)
  %17 = load ptr, ptr %11, align 8, !tbaa !102
  %18 = load ptr, ptr %9, align 8, !tbaa !95
  call void @CbsP_QuePush(ptr noundef %17, ptr noundef %18)
  %19 = load ptr, ptr %10, align 8, !tbaa !95
  %20 = icmp ne ptr %19, null
  br i1 %20, label %21, label %24

21:                                               ; preds = %5
  %22 = load ptr, ptr %11, align 8, !tbaa !102
  %23 = load ptr, ptr %10, align 8, !tbaa !95
  call void @CbsP_QuePush(ptr noundef %22, ptr noundef %23)
  br label %24

24:                                               ; preds = %21, %5
  %25 = load ptr, ptr %6, align 8, !tbaa !36
  %26 = load i32, ptr %7, align 4, !tbaa !38
  call void @CbsP_ManDeriveReason(ptr noundef %25, i32 noundef %26)
  %27 = load ptr, ptr %11, align 8, !tbaa !102
  %28 = call i32 @CbsP_QueFinish(ptr noundef %27)
  call void @llvm.lifetime.end.p0(i64 8, ptr %11) #11
  ret i32 %28
}